; Function Attrs: nounwind uwtable
define dso_local range(i32 0, 2) i32 @main() local_unnamed_addr #0 {
  %1 = alloca ptr, align 8
  %2 = alloca double, align 8
  %3 = alloca ptr, align 8
  call void @llvm.lifetime.start.p0(i64 8, ptr nonnull %1) #7
  call void @llvm.lifetime.start.p0(i64 8, ptr nonnull %2) #7
  call void @llvm.lifetime.start.p0(i64 8, ptr nonnull %3) #7
  %4 = call i32 @SUNContext_Create(i32 noundef 0, ptr noundef nonnull %3) #7
  %5 = icmp slt i32 %4, 0
  br i1 %5, label %check_flag.exit, label %8

check_flag.exit:                                  ; preds = %0
  %6 = load ptr, ptr @stderr, align 8, !tbaa !4
  %7 = call i32 (ptr, ptr, ...) @fprintf(ptr noundef %6, ptr noundef nonnull @.str.19, ptr noundef nonnull @.str, i32 noundef %4) #8
  br label %67

8:                                                ; preds = %0
  %puts = call i32 @puts(ptr nonnull dereferenceable(1) @str)
  %9 = call i32 (ptr, ...) @printf(ptr noundef nonnull dereferenceable(1) @.str.2, double noundef 0x3EB0C6F7A0B5ED8D)
  %10 = call i32 (ptr, ...) @printf(ptr noundef nonnull dereferenceable(1) @.str.3, double noundef 1.000000e-10)
  %11 = load ptr, ptr %3, align 8, !tbaa !9
  %12 = call ptr @N_VNew_Serial(i64 noundef 1, ptr noundef %11) #7
  %13 = icmp eq ptr %12, null
  br i1 %13, label %check_flag.exit42, label %16

check_flag.exit42:                                ; preds = %8
  %14 = load ptr, ptr @stderr, align 8, !tbaa !4
  %15 = call i32 (ptr, ptr, ...) @fprintf(ptr noundef %14, ptr noundef nonnull @.str.18, ptr noundef nonnull @.str.4) #8
  br label %67

16:                                               ; preds = %8
  %17 = load ptr, ptr %12, align 8, !tbaa !11
  %18 = getelementptr inbounds nuw i8, ptr %17, i64 16
  %19 = load ptr, ptr %18, align 8, !tbaa !14
  store double 0.000000e+00, ptr %19, align 8, !tbaa !19
  %20 = load ptr, ptr %3, align 8, !tbaa !9
  %21 = call ptr @ERKStepCreate(ptr noundef nonnull @f, double noundef 0.000000e+00, ptr noundef nonnull %12, ptr noundef %20) #7
  store ptr %21, ptr %1, align 8, !tbaa !21
  %22 = icmp eq ptr %21, null
  br i1 %22, label %check_flag.exit44, label %25

check_flag.exit44:                                ; preds = %16
  %23 = load ptr, ptr @stderr, align 8, !tbaa !4
  %24 = call i32 (ptr, ptr, ...) @fprintf(ptr noundef %23, ptr noundef nonnull @.str.18, ptr noundef nonnull @.str.5) #8
  br label %67

25:                                               ; preds = %16
  %26 = call i32 @ARKodeSStolerances(ptr noundef nonnull %21, double noundef 0x3EB0C6F7A0B5ED8D, double noundef 1.000000e-10) #7
  %27 = icmp slt i32 %26, 0
  br i1 %27, label %check_flag.exit46, label %.lr.ph.preheader

check_flag.exit46:                                ; preds = %25
  %28 = load ptr, ptr @stderr, align 8, !tbaa !4
  %29 = call i32 (ptr, ptr, ...) @fprintf(ptr noundef %28, ptr noundef nonnull @.str.19, ptr noundef nonnull @.str.6, i32 noundef %26) #8
  br label %67

.lr.ph.preheader:                                 ; preds = %25
  %30 = call noalias ptr @fopen(ptr noundef nonnull @.str.7, ptr noundef nonnull @.str.8)
  %31 = call i64 @fwrite(ptr nonnull @.str.9, i64 6, i64 1, ptr %30)
  %32 = load ptr, ptr %12, align 8, !tbaa !11
  %33 = getelementptr inbounds nuw i8, ptr %32, i64 16
  %34 = load ptr, ptr %33, align 8, !tbaa !14
  %35 = load double, ptr %34, align 8, !tbaa !19
  %36 = call i32 (ptr, ptr, ...) @fprintf(ptr noundef %30, ptr noundef nonnull @.str.10, double noundef 0.000000e+00, double noundef %35) #7
  store double 0.000000e+00, ptr %2, align 8, !tbaa !19
  %puts36 = call i32 @puts(ptr nonnull dereferenceable(1) @str.1)
  %puts37 = call i32 @puts(ptr nonnull dereferenceable(1) @str.3)
  br label %.lr.ph

.lr.ph:                                           ; preds = %.lr.ph.preheader, %41
  %.062 = phi double [ %56, %41 ], [ 1.000000e+00, %.lr.ph.preheader ]
  %37 = call i32 @ARKodeEvolve(ptr noundef nonnull %21, double noundef %.062, ptr noundef nonnull %12, ptr noundef nonnull %2, i32 noundef 1) #7
  %38 = icmp slt i32 %37, 0
  br i1 %38, label %check_flag.exit48, label %41

check_flag.exit48:                                ; preds = %.lr.ph
  %39 = load ptr, ptr @stderr, align 8, !tbaa !4
  %40 = call i32 (ptr, ptr, ...) @fprintf(ptr noundef %39, ptr noundef nonnull @.str.19, ptr noundef nonnull @.str.13, i32 noundef %37) #8
  br label %.loopexit

41:                                               ; preds = %.lr.ph
  %42 = load double, ptr %2, align 8, !tbaa !19
  %43 = load ptr, ptr %12, align 8, !tbaa !11
  %44 = getelementptr inbounds nuw i8, ptr %43, i64 16
  %45 = load ptr, ptr %44, align 8, !tbaa !14
  %46 = load double, ptr %45, align 8, !tbaa !19
  %47 = call i32 (ptr, ...) @printf(ptr noundef nonnull dereferenceable(1) @.str.14, double noundef %42, double noundef %46)
  %48 = load double, ptr %2, align 8, !tbaa !19
  %49 = load ptr, ptr %12, align 8, !tbaa !11
  %50 = getelementptr inbounds nuw i8, ptr %49, i64 16
  %51 = load ptr, ptr %50, align 8, !tbaa !14
  %52 = load double, ptr %51, align 8, !tbaa !19
  %53 = call i32 (ptr, ptr, ...) @fprintf(ptr noundef %30, ptr noundef nonnull @.str.10, double noundef %48, double noundef %52) #7
  %54 = fadd double %.062, 1.000000e+00
  %55 = fcmp ogt double %54, 1.000000e+01
  %56 = select i1 %55, double 1.000000e+01, double %54
  %57 = load double, ptr %2, align 8, !tbaa !19
  %58 = fsub double 1.000000e+01, %57
  %59 = fcmp ogt double %58, 1.000000e-15
  br i1 %59, label %.lr.ph, label %.loopexit

.loopexit:                                        ; preds = %41, %check_flag.exit48
  %puts39 = call i32 @puts(ptr nonnull dereferenceable(1) @str.3)
  %60 = call i32 @fclose(ptr noundef %30)
  %puts40 = call i32 @puts(ptr nonnull dereferenceable(1) @str.4)
  %61 = load ptr, ptr @stdout, align 8, !tbaa !4
  %62 = call i32 @ARKodePrintAllStats(ptr noundef nonnull %21, ptr noundef %61, i32 noundef 0) #7
  %63 = call noalias ptr @fopen(ptr noundef nonnull @.str.17, ptr noundef nonnull @.str.8)
  %64 = call i32 @ARKodePrintAllStats(ptr noundef nonnull %21, ptr noundef %63, i32 noundef 1) #7
  %65 = call i32 @fclose(ptr noundef %63)
  call void @N_VDestroy(ptr noundef nonnull %12) #7
  call void @ARKodeFree(ptr noundef nonnull %1) #7
  %66 = call i32 @SUNContext_Free(ptr noundef nonnull %3) #7
  br label %67

67:                                               ; preds = %check_flag.exit46, %check_flag.exit44, %check_flag.exit42, %check_flag.exit, %.loopexit
  %.032 = phi i32 [ 0, %.loopexit ], [ 1, %check_flag.exit ], [ 1, %check_flag.exit42 ], [ 1, %check_flag.exit44 ], [ 1, %check_flag.exit46 ]
  call void @llvm.lifetime.end.p0(i64 8, ptr nonnull %3) #7
  call void @llvm.lifetime.end.p0(i64 8, ptr nonnull %2) #7
  call void @llvm.lifetime.end.p0(i64 8, ptr nonnull %1) #7
  ret i32 %.032
}